; Function Attrs: uwtable
define noundef nonnull ptr @_ZThn16_NK6icu_7513StringMatcher17toReplacerPatternERNS_13UnicodeStringEa(ptr nocapture noundef readonly %this, ptr noundef nonnull returned align 8 dereferenceable(64) %rule, i8 signext %0) unnamed_addr #9 align 2 {
entry:
  %srcChar.addr.i.i = alloca i16, align 2
  %fUnion.i.i.i = getelementptr inbounds i8, ptr %rule, i64 8
  %1 = load i16, ptr %fUnion.i.i.i, align 8
  %conv2.i5.i.i = and i16 %1, 1
  %tobool.i.not.i = icmp eq i16 %conv2.i5.i.i, 0
  br i1 %tobool.i.not.i, label %if.else.i.i, label %if.then.i.i

if.then.i.i:                                      ; preds = %entry
  tail call void @_ZN6icu_7513UnicodeString7unBogusEv(ptr noundef nonnull align 8 dereferenceable(64) %rule)
  br label %_ZNK6icu_7513StringMatcher17toReplacerPatternERNS_13UnicodeStringEa.exit

if.else.i.i:                                      ; preds = %entry
  %cmp.i.i.i.i = icmp slt i16 %1, 0
  %2 = ashr i16 %1, 5
  %shr.i.i.i.i = sext i16 %2 to i32
  %fLength.i.i.i = getelementptr inbounds i8, ptr %rule, i64 12
  %3 = load i32, ptr %fLength.i.i.i, align 4
  %cond.i.i.i = select i1 %cmp.i.i.i.i, i32 %3, i32 %shr.i.i.i.i
  %cmp3.i.not.i = icmp eq i32 %cond.i.i.i, 0
  br i1 %cmp3.i.not.i, label %_ZNK6icu_7513StringMatcher17toReplacerPatternERNS_13UnicodeStringEa.exit, label %if.then4.i.i

if.then4.i.i:                                     ; preds = %if.else.i.i
  %4 = and i16 %1, 30
  store i16 %4, ptr %fUnion.i.i.i, align 8
  br label %_ZNK6icu_7513StringMatcher17toReplacerPatternERNS_13UnicodeStringEa.exit

_ZNK6icu_7513StringMatcher17toReplacerPatternERNS_13UnicodeStringEa.exit: ; preds = %if.then.i.i, %if.else.i.i, %if.then4.i.i
  call void @llvm.lifetime.start.p0(i64 2, ptr nonnull %srcChar.addr.i.i)
  store i16 36, ptr %srcChar.addr.i.i, align 2
  %call.i.i = call noundef nonnull align 8 dereferenceable(64) ptr @_ZN6icu_7513UnicodeString8doAppendEPKDsii(ptr noundef nonnull align 8 dereferenceable(64) %rule, ptr noundef nonnull %srcChar.addr.i.i, i32 noundef 0, i32 noundef 1)
  call void @llvm.lifetime.end.p0(i64 2, ptr nonnull %srcChar.addr.i.i)
  %segmentNumber.i = getelementptr inbounds i8, ptr %this, i64 80
  %5 = load i32, ptr %segmentNumber.i, align 8
  %call3.i = call noundef nonnull align 8 dereferenceable(64) ptr @_ZN6icu_7511ICU_Utility12appendNumberERNS_13UnicodeStringEiii(ptr noundef nonnull align 8 dereferenceable(64) %rule, i32 noundef %5, i32 noundef 10, i32 noundef 1)
  ret ptr %rule
}